; Function Attrs: nounwind uwtable
define noundef nonnull ptr @l___private_Lean_Meta_CompletionName_0__Lean_Meta_isInternalNameModuloPrivate___boxed(ptr noundef %0) local_unnamed_addr #0 {
  br label %.backedge.i

.backedge.i:                                      ; preds = %.backedge.i.backedge, %1
  %.018.i = phi ptr [ %0, %1 ], [ %.018.i.be, %.backedge.i.backedge ]
  %2 = ptrtoint ptr %.018.i to i64
  %3 = and i64 %2, 1
  %.not.i.i = icmp eq i64 %3, 0
  br i1 %.not.i.i, label %7, label %4

4:                                                ; preds = %.backedge.i
  %5 = lshr i64 %2, 1
  %6 = trunc i64 %5 to i32
  br label %lean_obj_tag.exit.i

7:                                                ; preds = %.backedge.i
  %8 = getelementptr i8, ptr %.018.i, i64 4
  %.val.i.i = load i32, ptr %8, align 4
  %9 = lshr i32 %.val.i.i, 24
  br label %lean_obj_tag.exit.i

lean_obj_tag.exit.i:                              ; preds = %7, %4
  %.0.i.i = phi i32 [ %6, %4 ], [ %9, %7 ]
  switch i32 %.0.i.i, label %19 [
    i32 0, label %l___private_Lean_Meta_CompletionName_0__Lean_Meta_isInternalNameModuloPrivate.exit
    i32 1, label %10
  ]

10:                                               ; preds = %lean_obj_tag.exit.i
  %11 = getelementptr inbounds nuw i8, ptr %.018.i, i64 8
  %12 = load ptr, ptr %11, align 8, !tbaa !4
  %13 = getelementptr inbounds nuw i8, ptr %.018.i, i64 16
  %14 = load ptr, ptr %13, align 8, !tbaa !4
  %15 = tail call i32 @lean_string_utf8_get(ptr noundef %14, ptr noundef nonnull inttoptr (i64 1 to ptr)) #3
  %.not.i3 = icmp eq i32 %15, 95
  br i1 %.not.i3, label %16, label %.backedge.i.backedge

16:                                               ; preds = %10
  %17 = load ptr, ptr @l_Lean_privateHeader, align 8, !tbaa !4
  %18 = tail call zeroext i8 @lean_name_eq(ptr noundef nonnull %.018.i, ptr noundef %17) #3
  %.not25.i = icmp eq i8 %18, 0
  br i1 %.not25.i, label %l___private_Lean_Meta_CompletionName_0__Lean_Meta_isInternalNameModuloPrivate.exit, label %.backedge.i.backedge

19:                                               ; preds = %lean_obj_tag.exit.i
  %20 = getelementptr inbounds nuw i8, ptr %.018.i, i64 8
  %21 = load ptr, ptr %20, align 8, !tbaa !4
  br label %.backedge.i.backedge

.backedge.i.backedge:                             ; preds = %19, %16, %10
  %.018.i.be = phi ptr [ %21, %19 ], [ %12, %16 ], [ %12, %10 ]
  br label %.backedge.i

l___private_Lean_Meta_CompletionName_0__Lean_Meta_isInternalNameModuloPrivate.exit: ; preds = %lean_obj_tag.exit.i, %16
  %.1.i = phi i64 [ 3, %16 ], [ 1, %lean_obj_tag.exit.i ]
  %22 = ptrtoint ptr %0 to i64
  %23 = and i64 %22, 1
  %.not = icmp eq i64 %23, 0
  br i1 %.not, label %24, label %lean_dec.exit

24:                                               ; preds = %l___private_Lean_Meta_CompletionName_0__Lean_Meta_isInternalNameModuloPrivate.exit
  %25 = load i32, ptr %0, align 4, !tbaa !8
  %26 = icmp sgt i32 %25, 1
  br i1 %26, label %27, label %29, !prof !11

27:                                               ; preds = %24
  %28 = add nsw i32 %25, -1
  store i32 %28, ptr %0, align 4, !tbaa !8
  br label %lean_dec.exit

29:                                               ; preds = %24
  %.not.i = icmp eq i32 %25, 0
  br i1 %.not.i, label %lean_dec.exit, label %30

30:                                               ; preds = %29
  tail call void @lean_dec_ref_cold(ptr noundef nonnull %0) #3
  br label %lean_dec.exit

lean_dec.exit:                                    ; preds = %30, %29, %27, %l___private_Lean_Meta_CompletionName_0__Lean_Meta_isInternalNameModuloPrivate.exit
  %31 = inttoptr i64 %.1.i to ptr
  ret ptr %31
}